(lp0
(lp1
S'prince'
p2
aI4160
aa(lp3
S'ws'
p4
aI2320
aa(lp5
S'prince'
p6
aI2080
aa(lp7
S'prince'
p8
aI1720
aa(lp9
S'prince'
p10
aI870
aa(lp11
S'keven'
p12
aI440
aa(lp13
NaI350
aa(lp14
S'steven'
p15
aI310
aa(lp16
S'potter'
p17
aI310
aa(lp18
NaI140
aa(lp19
S'prince'
p20
aI0
aa.